; Function Attrs: nounwind sspstrong uwtable
define internal i64 @rb_ary_new_from_node_args(i64 noundef %0, i64 noundef range(i64 0, 5) %1, ...) unnamed_addr #0 {
  %3 = alloca [1 x %struct.__va_list_tag], align 16
  call void @llvm.lifetime.start.p0(i64 24, ptr nonnull %3) #11
  %4 = tail call i64 @rb_ary_new_capa(i64 noundef %1) #11
  call void @llvm.va_start.p0(ptr nonnull %3)
  %.not11 = icmp eq i64 %1, 0
  br i1 %.not11, label %._crit_edge, label %.lr.ph

.lr.ph:                                           ; preds = %2
  %5 = getelementptr inbounds nuw i8, ptr %3, i64 8
  %6 = getelementptr inbounds nuw i8, ptr %3, i64 16
  br label %7

7:                                                ; preds = %.lr.ph, %26
  %.010 = phi i64 [ 0, %.lr.ph ], [ %29, %26 ]
  %8 = load i32, ptr %3, align 16
  %9 = icmp ult i32 %8, 41
  br i1 %9, label %10, label %15

10:                                               ; preds = %7
  %11 = load ptr, ptr %6, align 16
  %12 = zext nneg i32 %8 to i64
  %13 = getelementptr i8, ptr %11, i64 %12
  %14 = add nuw nsw i32 %8, 8
  store i32 %14, ptr %3, align 16
  br label %18

15:                                               ; preds = %7
  %16 = load ptr, ptr %5, align 8
  %17 = getelementptr i8, ptr %16, i64 8
  store ptr %17, ptr %5, align 8
  br label %18

18:                                               ; preds = %15, %10
  %19 = phi ptr [ %13, %10 ], [ %16, %15 ]
  %20 = load ptr, ptr %19, align 8, !tbaa !371
  %.not = icmp eq ptr %20, null
  br i1 %.not, label %26, label %21

21:                                               ; preds = %18
  %22 = load i64, ptr @rb_cNode, align 8, !tbaa !47
  %23 = call i64 @rb_data_typed_object_zalloc(i64 noundef %22, i64 noundef 16, ptr noundef nonnull @rb_node_type) #11
  %24 = call ptr @rb_check_typeddata(i64 noundef %23, ptr noundef nonnull @rb_node_type) #11
  store i64 %0, ptr %24, align 8, !tbaa !70
  %25 = getelementptr inbounds nuw i8, ptr %24, i64 8
  store ptr %20, ptr %25, align 8, !tbaa !72
  br label %26

26:                                               ; preds = %18, %21
  %27 = phi i64 [ %23, %21 ], [ 4, %18 ]
  %28 = call i64 @rb_ary_push(i64 noundef %4, i64 noundef %27) #11
  %29 = add nuw nsw i64 %.010, 1
  %exitcond.not = icmp eq i64 %29, %1
  br i1 %exitcond.not, label %._crit_edge, label %7, !llvm.loop !372

._crit_edge:                                      ; preds = %26, %2
  call void @llvm.va_end.p0(ptr nonnull %3)
  call void @llvm.lifetime.end.p0(i64 24, ptr nonnull %3) #11
  ret i64 %4
}